; Function Attrs: nounwind sspstrong uwtable
define internal void @cryptodev_builtin_cleanup(ptr noundef %backend, ptr readnone captures(none) %errp) #0 {
entry:
  %call.i = tail call ptr @object_dynamic_cast_assert(ptr noundef %backend, ptr noundef nonnull @.str, ptr noundef nonnull @.str.3, i32 noundef 39, ptr noundef nonnull @__func__.CRYPTODEV_BACKEND_BUILTIN) #6
  %conf = getelementptr inbounds nuw i8, ptr %backend, i64 48
  %queues1 = getelementptr inbounds nuw i8, ptr %backend, i64 560
  %0 = load i32, ptr %queues1, align 8
  %sessions = getelementptr inbounds nuw i8, ptr %call.i, i64 1200
  br label %for.body

for.cond4.preheader:                              ; preds = %for.inc
  %conv = sext i32 %0 to i64
  %cmp515.not = icmp eq i32 %0, 0
  br i1 %cmp515.not, label %for.end19, label %for.body7

for.body:                                         ; preds = %entry, %for.inc
  %i.014 = phi i64 [ 0, %entry ], [ %inc, %for.inc ]
  %arrayidx = getelementptr [256 x ptr], ptr %sessions, i64 0, i64 %i.014
  %1 = load ptr, ptr %arrayidx, align 8
  %cmp2.not = icmp eq ptr %1, null
  br i1 %cmp2.not, label %for.inc, label %land.lhs.true.i

land.lhs.true.i:                                  ; preds = %for.body
  %call.i.i = tail call ptr @object_dynamic_cast_assert(ptr noundef %backend, ptr noundef nonnull @.str, ptr noundef nonnull @.str.3, i32 noundef 39, ptr noundef nonnull @__func__.CRYPTODEV_BACKEND_BUILTIN) #6
  %sessions.i = getelementptr inbounds nuw i8, ptr %call.i.i, i64 1200
  %arrayidx.i = getelementptr [256 x ptr], ptr %sessions.i, i64 0, i64 %i.014
  %2 = load ptr, ptr %arrayidx.i, align 8
  %tobool.not.i = icmp eq ptr %2, null
  br i1 %tobool.not.i, label %if.else.i, label %if.end.i

if.else.i:                                        ; preds = %land.lhs.true.i
  tail call void @__assert_fail(ptr noundef nonnull @.str.15, ptr noundef nonnull @.str.3, i32 noundef 430, ptr noundef nonnull @__PRETTY_FUNCTION__.cryptodev_builtin_close_session) #7
  unreachable

if.end.i:                                         ; preds = %land.lhs.true.i
  %3 = load ptr, ptr %2, align 8
  %tobool3.not.i = icmp eq ptr %3, null
  br i1 %tobool3.not.i, label %if.else6.i, label %if.then4.i

if.then4.i:                                       ; preds = %if.end.i
  tail call void @qcrypto_cipher_free(ptr noundef nonnull %3) #6
  br label %cryptodev_builtin_close_session.exit

if.else6.i:                                       ; preds = %if.end.i
  %akcipher.i = getelementptr inbounds nuw i8, ptr %2, i64 16
  %4 = load ptr, ptr %akcipher.i, align 8
  %tobool7.not.i = icmp eq ptr %4, null
  br i1 %tobool7.not.i, label %cryptodev_builtin_close_session.exit, label %if.then8.i

if.then8.i:                                       ; preds = %if.else6.i
  tail call void @qcrypto_akcipher_free(ptr noundef nonnull %4) #6
  br label %cryptodev_builtin_close_session.exit

cryptodev_builtin_close_session.exit:             ; preds = %if.then4.i, %if.else6.i, %if.then8.i
  tail call void @g_free(ptr noundef nonnull %2) #6
  store ptr null, ptr %arrayidx.i, align 8
  br label %for.inc

for.inc:                                          ; preds = %for.body, %cryptodev_builtin_close_session.exit
  %inc = add nuw nsw i64 %i.014, 1
  %exitcond.not = icmp eq i64 %inc, 256
  br i1 %exitcond.not, label %for.cond4.preheader, label %for.body, !llvm.loop !5

for.body7:                                        ; preds = %for.cond4.preheader, %for.inc17
  %i.116 = phi i64 [ %inc18, %for.inc17 ], [ 0, %for.cond4.preheader ]
  %arrayidx10 = getelementptr [64 x ptr], ptr %conf, i64 0, i64 %i.116
  %5 = load ptr, ptr %arrayidx10, align 8
  %tobool.not = icmp eq ptr %5, null
  br i1 %tobool.not, label %for.inc17, label %if.then11

if.then11:                                        ; preds = %for.body7
  tail call void @cryptodev_backend_free_client(ptr noundef nonnull %5) #6
  store ptr null, ptr %arrayidx10, align 8
  br label %for.inc17

for.inc17:                                        ; preds = %for.body7, %if.then11
  %inc18 = add nuw i64 %i.116, 1
  %exitcond17.not = icmp eq i64 %inc18, %conv
  br i1 %exitcond17.not, label %for.end19, label %for.body7, !llvm.loop !7

for.end19:                                        ; preds = %for.inc17, %for.cond4.preheader
  tail call void @cryptodev_backend_set_ready(ptr noundef %backend, i1 noundef zeroext false) #6
  ret void
}